; Function Attrs: mustprogress uwtable
define internal fastcc void @_ZN4JsonL9appendHexERNSt7__cxx1112basic_stringIcSt11char_traitsIcESaIcEEEj(ptr noundef nonnull align 8 dereferenceable(32) %0, i32 noundef %1) unnamed_addr #0 personality ptr @__gxx_personality_v0 {
  %3 = alloca %"class.std::allocator", align 1
  %4 = alloca %"class.std::__cxx11::basic_string", align 8
  %5 = tail call noundef nonnull align 8 dereferenceable(32) ptr @_ZNSt7__cxx1112basic_stringIcSt11char_traitsIcESaIcEE6appendEPKc(ptr noundef nonnull align 8 dereferenceable(32) %0, ptr noundef nonnull @.str.50)
  call void @llvm.lifetime.start.p0(i64 1, ptr nonnull %3)
  call void @_ZNSaIcEC1Ev(ptr noundef nonnull align 1 dereferenceable(1) %3) #19, !noalias !43
  %6 = invoke noundef ptr @_ZNSt7__cxx1112basic_stringIcSt11char_traitsIcESaIcEE13_M_local_dataEv(ptr noundef nonnull align 8 dereferenceable(32) %4)
          to label %.noexc.i unwind label %34

.noexc.i:                                         ; preds = %2
  invoke void @_ZNSt7__cxx1112basic_stringIcSt11char_traitsIcESaIcEE12_Alloc_hiderC1EPcRKS3_(ptr noundef nonnull align 8 dereferenceable(8) %4, ptr noundef %6, ptr noundef nonnull align 1 dereferenceable(1) %3)
          to label %.noexc10.i unwind label %34

.noexc10.i:                                       ; preds = %.noexc.i
  invoke void @_ZNSt7__cxx1112basic_stringIcSt11char_traitsIcESaIcEE12_M_constructEmc(ptr noundef nonnull align 8 dereferenceable(32) %4, i64 noundef 4, i8 noundef signext 32)
          to label %_ZNSt7__cxx1112basic_stringIcSt11char_traitsIcESaIcEEC2IS3_EEmcRKS3_.exit.i unwind label %7

7:                                                ; preds = %.noexc10.i
  %8 = landingpad { ptr, i32 }
          cleanup
  call void @_ZNSaIcED2Ev(ptr noundef nonnull align 1 dereferenceable(1) %4) #19
  br label %.body.i

_ZNSt7__cxx1112basic_stringIcSt11char_traitsIcESaIcEEC2IS3_EEmcRKS3_.exit.i: ; preds = %.noexc10.i
  call void @_ZNSaIcED1Ev(ptr noundef nonnull align 1 dereferenceable(1) %3) #19
  %9 = lshr i32 %1, 7
  %10 = and i32 %9, 510
  %11 = zext nneg i32 %10 to i64
  %12 = getelementptr inbounds [513 x i8], ptr @_ZN4JsonL4hex2E, i64 0, i64 %11
  %13 = load i8, ptr %12, align 2, !noalias !43
  %14 = invoke noundef nonnull align 1 dereferenceable(1) ptr @_ZNSt7__cxx1112basic_stringIcSt11char_traitsIcESaIcEEixEm(ptr noundef nonnull align 8 dereferenceable(32) %4, i64 noundef 0)
          to label %15 unwind label %36

15:                                               ; preds = %_ZNSt7__cxx1112basic_stringIcSt11char_traitsIcESaIcEEC2IS3_EEmcRKS3_.exit.i
  store i8 %13, ptr %14, align 1
  %16 = or disjoint i32 %10, 1
  %17 = zext nneg i32 %16 to i64
  %18 = getelementptr inbounds [513 x i8], ptr @_ZN4JsonL4hex2E, i64 0, i64 %17
  %19 = load i8, ptr %18, align 1, !noalias !43
  %20 = invoke noundef nonnull align 1 dereferenceable(1) ptr @_ZNSt7__cxx1112basic_stringIcSt11char_traitsIcESaIcEEixEm(ptr noundef nonnull align 8 dereferenceable(32) %4, i64 noundef 1)
          to label %21 unwind label %36

21:                                               ; preds = %15
  store i8 %19, ptr %20, align 1
  %22 = shl i32 %1, 1
  %23 = and i32 %22, 510
  %24 = zext nneg i32 %23 to i64
  %25 = getelementptr inbounds [513 x i8], ptr @_ZN4JsonL4hex2E, i64 0, i64 %24
  %26 = load i8, ptr %25, align 2, !noalias !43
  %27 = invoke noundef nonnull align 1 dereferenceable(1) ptr @_ZNSt7__cxx1112basic_stringIcSt11char_traitsIcESaIcEEixEm(ptr noundef nonnull align 8 dereferenceable(32) %4, i64 noundef 2)
          to label %28 unwind label %36

28:                                               ; preds = %21
  store i8 %26, ptr %27, align 1
  %29 = or disjoint i32 %23, 1
  %30 = zext nneg i32 %29 to i64
  %31 = getelementptr inbounds [513 x i8], ptr @_ZN4JsonL4hex2E, i64 0, i64 %30
  %32 = load i8, ptr %31, align 1, !noalias !43
  %33 = invoke noundef nonnull align 1 dereferenceable(1) ptr @_ZNSt7__cxx1112basic_stringIcSt11char_traitsIcESaIcEEixEm(ptr noundef nonnull align 8 dereferenceable(32) %4, i64 noundef 3)
          to label %_ZN4JsonL10toHex16BitB5cxx11Ej.exit unwind label %36

34:                                               ; preds = %.noexc.i, %2
  %35 = landingpad { ptr, i32 }
          cleanup
  br label %.body.i

.body.i:                                          ; preds = %34, %7
  %eh.lpad-body.i = phi { ptr, i32 } [ %35, %34 ], [ %8, %7 ]
  call void @_ZNSaIcED1Ev(ptr noundef nonnull align 1 dereferenceable(1) %3) #19
  br label %common.resume

36:                                               ; preds = %28, %21, %15, %_ZNSt7__cxx1112basic_stringIcSt11char_traitsIcESaIcEEC2IS3_EEmcRKS3_.exit.i
  %37 = landingpad { ptr, i32 }
          cleanup
  call void @_ZNSt7__cxx1112basic_stringIcSt11char_traitsIcESaIcEED1Ev(ptr noundef nonnull align 8 dereferenceable(32) %4) #19
  br label %common.resume

common.resume:                                    ; preds = %.body.i, %36, %40
  %common.resume.op = phi { ptr, i32 } [ %41, %40 ], [ %37, %36 ], [ %eh.lpad-body.i, %.body.i ]
  resume { ptr, i32 } %common.resume.op

_ZN4JsonL10toHex16BitB5cxx11Ej.exit:              ; preds = %28
  store i8 %32, ptr %33, align 1
  call void @llvm.lifetime.end.p0(i64 1, ptr nonnull %3)
  %38 = invoke noundef nonnull align 8 dereferenceable(32) ptr @_ZNSt7__cxx1112basic_stringIcSt11char_traitsIcESaIcEE6appendERKS4_(ptr noundef nonnull align 8 dereferenceable(32) %5, ptr noundef nonnull align 8 dereferenceable(32) %4)
          to label %39 unwind label %40

39:                                               ; preds = %_ZN4JsonL10toHex16BitB5cxx11Ej.exit
  call void @_ZNSt7__cxx1112basic_stringIcSt11char_traitsIcESaIcEED1Ev(ptr noundef nonnull align 8 dereferenceable(32) %4) #19
  ret void

40:                                               ; preds = %_ZN4JsonL10toHex16BitB5cxx11Ej.exit
  %41 = landingpad { ptr, i32 }
          cleanup
  call void @_ZNSt7__cxx1112basic_stringIcSt11char_traitsIcESaIcEED1Ev(ptr noundef nonnull align 8 dereferenceable(32) %4) #19
  br label %common.resume
}